; Function Attrs: mustprogress uwtable
define noundef zeroext i1 @_ZNK8facebook5velox12FunctionType10equivalentERKNS0_4TypeE(ptr noundef nonnull readonly align 8 dereferenceable(72) %this, ptr noundef nonnull align 8 dereferenceable(17) %other) unnamed_addr #0 align 2 {
entry:
  %cmp = icmp eq ptr %other, %this
  br i1 %cmp, label %return, label %_ZNK8facebook5velox4Type13hasSameTypeIdERKS1_.exit

_ZNK8facebook5velox4Type13hasSameTypeIdERKS1_.exit: ; preds = %entry
  %vtable.i = load ptr, ptr %this, align 8
  %0 = getelementptr inbounds i8, ptr %vtable.i, i64 -8
  %1 = load ptr, ptr %0, align 8
  %vtable2.i = load ptr, ptr %other, align 8
  %2 = getelementptr inbounds i8, ptr %vtable2.i, i64 -8
  %3 = load ptr, ptr %2, align 8
  %__name.i = getelementptr inbounds i8, ptr %1, i64 8
  %4 = load ptr, ptr %__name.i, align 8
  %__name2.i = getelementptr inbounds i8, ptr %3, i64 8
  %5 = load ptr, ptr %__name2.i, align 8
  %cmp.i = icmp eq ptr %4, %5
  br i1 %cmp.i, label %if.end3, label %if.end.i

if.end.i:                                         ; preds = %_ZNK8facebook5velox4Type13hasSameTypeIdERKS1_.exit
  %6 = load i8, ptr %4, align 1
  %cmp4.not.i = icmp eq i8 %6, 42
  br i1 %cmp4.not.i, label %return, label %_ZNKSt9type_infoeqERKS_.exit

_ZNKSt9type_infoeqERKS_.exit:                     ; preds = %if.end.i
  %7 = load i8, ptr %5, align 1
  %cmp.i.i = icmp eq i8 %7, 42
  %cond.idx.i.i = zext i1 %cmp.i.i to i64
  %cond.i.i = getelementptr inbounds i8, ptr %5, i64 %cond.idx.i.i
  %call6.i = tail call i32 @strcmp(ptr noundef nonnull dereferenceable(1) %4, ptr noundef nonnull dereferenceable(1) %cond.i.i) #37
  %cmp7.i = icmp eq i32 %call6.i, 0
  br i1 %cmp7.i, label %if.end3, label %return

if.end3:                                          ; preds = %_ZNK8facebook5velox4Type13hasSameTypeIdERKS1_.exit, %_ZNKSt9type_infoeqERKS_.exit
  %children_ = getelementptr inbounds i8, ptr %this, i64 24
  %_M_finish.i = getelementptr inbounds i8, ptr %this, i64 32
  %8 = load ptr, ptr %_M_finish.i, align 8
  %9 = load ptr, ptr %children_, align 8
  %sub.ptr.lhs.cast.i = ptrtoint ptr %8 to i64
  %sub.ptr.rhs.cast.i = ptrtoint ptr %9 to i64
  %sub.ptr.sub.i = sub i64 %sub.ptr.lhs.cast.i, %sub.ptr.rhs.cast.i
  %sub.ptr.div.i = ashr exact i64 %sub.ptr.sub.i, 4
  %vfn = getelementptr inbounds i8, ptr %vtable2.i, i64 16
  %10 = load ptr, ptr %vfn, align 8
  %call5 = tail call noundef i32 %10(ptr noundef nonnull align 8 dereferenceable(72) %other)
  %conv = zext i32 %call5 to i64
  %cmp6.not = icmp eq i64 %sub.ptr.div.i, %conv
  br i1 %cmp6.not, label %for.cond.preheader, label %return

for.cond.preheader:                               ; preds = %if.end3
  %11 = load ptr, ptr %_M_finish.i, align 8
  %12 = load ptr, ptr %children_, align 8
  %cmp1229.not = icmp eq ptr %11, %12
  br i1 %cmp1229.not, label %return, label %_ZNKSt6vectorISt10shared_ptrIKN8facebook5velox4TypeEESaIS5_EE2atEm.exit.lr.ph

_ZNKSt6vectorISt10shared_ptrIKN8facebook5velox4TypeEESaIS5_EE2atEm.exit.lr.ph: ; preds = %for.cond.preheader
  %children_17 = getelementptr inbounds i8, ptr %other, i64 24
  %_M_finish.i.i.i12 = getelementptr inbounds i8, ptr %other, i64 32
  br label %_ZNKSt6vectorISt10shared_ptrIKN8facebook5velox4TypeEESaIS5_EE2atEm.exit

for.cond:                                         ; preds = %_ZNKSt6vectorISt10shared_ptrIKN8facebook5velox4TypeEESaIS5_EE2atEm.exit20
  %indvars.iv.next = add nuw i64 %indvars.iv, 1
  %13 = load ptr, ptr %_M_finish.i, align 8
  %14 = load ptr, ptr %children_, align 8
  %sub.ptr.lhs.cast.i8 = ptrtoint ptr %13 to i64
  %sub.ptr.rhs.cast.i9 = ptrtoint ptr %14 to i64
  %sub.ptr.sub.i10 = sub i64 %sub.ptr.lhs.cast.i8, %sub.ptr.rhs.cast.i9
  %sub.ptr.div.i11 = ashr exact i64 %sub.ptr.sub.i10, 4
  %cmp12 = icmp ugt i64 %sub.ptr.div.i11, %indvars.iv.next
  br i1 %cmp12, label %_ZNKSt6vectorISt10shared_ptrIKN8facebook5velox4TypeEESaIS5_EE2atEm.exit, label %return, !llvm.loop !92

_ZNKSt6vectorISt10shared_ptrIKN8facebook5velox4TypeEESaIS5_EE2atEm.exit: ; preds = %_ZNKSt6vectorISt10shared_ptrIKN8facebook5velox4TypeEESaIS5_EE2atEm.exit.lr.ph, %for.cond
  %indvars.iv = phi i64 [ 0, %_ZNKSt6vectorISt10shared_ptrIKN8facebook5velox4TypeEESaIS5_EE2atEm.exit.lr.ph ], [ %indvars.iv.next, %for.cond ]
  %15 = phi ptr [ %12, %_ZNKSt6vectorISt10shared_ptrIKN8facebook5velox4TypeEESaIS5_EE2atEm.exit.lr.ph ], [ %14, %for.cond ]
  %16 = load ptr, ptr %_M_finish.i.i.i12, align 8
  %17 = load ptr, ptr %children_17, align 8
  %sub.ptr.lhs.cast.i.i.i13 = ptrtoint ptr %16 to i64
  %sub.ptr.rhs.cast.i.i.i14 = ptrtoint ptr %17 to i64
  %sub.ptr.sub.i.i.i15 = sub i64 %sub.ptr.lhs.cast.i.i.i13, %sub.ptr.rhs.cast.i.i.i14
  %sub.ptr.div.i.i.i16 = ashr exact i64 %sub.ptr.sub.i.i.i15, 4
  %cmp.not.i.i17 = icmp ugt i64 %sub.ptr.div.i.i.i16, %indvars.iv
  br i1 %cmp.not.i.i17, label %_ZNKSt6vectorISt10shared_ptrIKN8facebook5velox4TypeEESaIS5_EE2atEm.exit20, label %if.then.i.i18

if.then.i.i18:                                    ; preds = %_ZNKSt6vectorISt10shared_ptrIKN8facebook5velox4TypeEESaIS5_EE2atEm.exit
  tail call void (ptr, ...) @_ZSt24__throw_out_of_range_fmtPKcz(ptr noundef nonnull @.str.75, i64 noundef %indvars.iv, i64 noundef %sub.ptr.div.i.i.i16) #39
  unreachable

_ZNKSt6vectorISt10shared_ptrIKN8facebook5velox4TypeEESaIS5_EE2atEm.exit20: ; preds = %_ZNKSt6vectorISt10shared_ptrIKN8facebook5velox4TypeEESaIS5_EE2atEm.exit
  %add.ptr.i.i = getelementptr inbounds %"class.std::shared_ptr", ptr %15, i64 %indvars.iv
  %18 = load ptr, ptr %add.ptr.i.i, align 8
  %add.ptr.i.i19 = getelementptr inbounds %"class.std::shared_ptr", ptr %17, i64 %indvars.iv
  %19 = load ptr, ptr %add.ptr.i.i19, align 8
  %vtable21 = load ptr, ptr %18, align 8
  %vfn22 = getelementptr inbounds i8, ptr %vtable21, i64 88
  %20 = load ptr, ptr %vfn22, align 8
  %call23 = tail call noundef zeroext i1 %20(ptr noundef nonnull align 8 dereferenceable(17) %18, ptr noundef nonnull align 8 dereferenceable(17) %19)
  br i1 %call23, label %for.cond, label %return

return:                                           ; preds = %_ZNKSt6vectorISt10shared_ptrIKN8facebook5velox4TypeEESaIS5_EE2atEm.exit20, %for.cond, %for.cond.preheader, %if.end.i, %if.end3, %_ZNKSt9type_infoeqERKS_.exit, %entry
  %retval.0 = phi i1 [ true, %entry ], [ false, %_ZNKSt9type_infoeqERKS_.exit ], [ false, %if.end3 ], [ false, %if.end.i ], [ true, %for.cond.preheader ], [ %call23, %for.cond ], [ %call23, %_ZNKSt6vectorISt10shared_ptrIKN8facebook5velox4TypeEESaIS5_EE2atEm.exit20 ]
  ret i1 %retval.0
}